target datalayout = "e-m:e-p270:32:32-p271:32:32-p272:64:64-i64:64-i128:128-f80:128-n8:16:32:64-S128"
target triple = "x86_64-unknown-linux-gnu"

%"class.folly::Range" = type { ptr, ptr }
%"class.facebook::velox::memory::Allocation::PageRun" = type { i64 }
%"class.std::optional" = type { %"struct.std::_Optional_base" }
%"struct.std::_Optional_base" = type { %"struct.std::_Optional_payload" }
%"struct.std::_Optional_payload" = type { %"struct.std::_Optional_payload_base.base", [7 x i8] }
%"struct.std::_Optional_payload_base.base" = type <{ %"union.std::_Optional_payload_base<folly::Range<char *>>::_Storage", i8 }>
%"union.std::_Optional_payload_base<folly::Range<char *>>::_Storage" = type { %"class.folly::Range" }
%"class.facebook::velox::memory::AllocationPool" = type { ptr, %"class.std::vector", %"class.std::vector.0", ptr, i64, i64, i64, i64 }
%"class.std::vector" = type { %"struct.std::_Vector_base" }
%"struct.std::_Vector_base" = type { %"struct.std::_Vector_base<facebook::velox::memory::Allocation, std::allocator<facebook::velox::memory::Allocation>>::_Vector_impl" }
%"struct.std::_Vector_base<facebook::velox::memory::Allocation, std::allocator<facebook::velox::memory::Allocation>>::_Vector_impl" = type { %"struct.std::_Vector_base<facebook::velox::memory::Allocation, std::allocator<facebook::velox::memory::Allocation>>::_Vector_impl_data" }
%"struct.std::_Vector_base<facebook::velox::memory::Allocation, std::allocator<facebook::velox::memory::Allocation>>::_Vector_impl_data" = type { ptr, ptr, ptr }
%"class.std::vector.0" = type { %"struct.std::_Vector_base.1" }
%"struct.std::_Vector_base.1" = type { %"struct.std::_Vector_base<facebook::velox::memory::ContiguousAllocation, std::allocator<facebook::velox::memory::ContiguousAllocation>>::_Vector_impl" }
%"struct.std::_Vector_base<facebook::velox::memory::ContiguousAllocation, std::allocator<facebook::velox::memory::ContiguousAllocation>>::_Vector_impl" = type { %"struct.std::_Vector_base<facebook::velox::memory::ContiguousAllocation, std::allocator<facebook::velox::memory::ContiguousAllocation>>::_Vector_impl_data" }
%"struct.std::_Vector_base<facebook::velox::memory::ContiguousAllocation, std::allocator<facebook::velox::memory::ContiguousAllocation>>::_Vector_impl_data" = type { ptr, ptr, ptr }
%"class.facebook::velox::memory::Allocation" = type <{ ptr, %"class.std::vector.5", i32, [4 x i8] }>
%"class.std::vector.5" = type { %"struct.std::_Vector_base.6" }
%"struct.std::_Vector_base.6" = type { %"struct.std::_Vector_base<facebook::velox::memory::Allocation::PageRun, std::allocator<facebook::velox::memory::Allocation::PageRun>>::_Vector_impl" }
%"struct.std::_Vector_base<facebook::velox::memory::Allocation::PageRun, std::allocator<facebook::velox::memory::Allocation::PageRun>>::_Vector_impl" = type { %"struct.std::_Vector_base<facebook::velox::memory::Allocation::PageRun, std::allocator<facebook::velox::memory::Allocation::PageRun>>::_Vector_impl_data" }
%"struct.std::_Vector_base<facebook::velox::memory::Allocation::PageRun, std::allocator<facebook::velox::memory::Allocation::PageRun>>::_Vector_impl_data" = type { ptr, ptr, ptr }
%"class.facebook::velox::memory::ContiguousAllocation" = type { ptr, ptr, i64, i64 }
%"struct.std::_Optional_payload_base" = type <{ %"union.std::_Optional_payload_base<folly::Range<char *>>::_Storage", i8, [7 x i8] }>

; Function Attrs: mustprogress nounwind uwtable
define linkonce_odr noundef nonnull align 8 dereferenceable(16) ptr @_ZNSt22_Optional_payload_baseIN5folly5RangeIPcEEE6_M_getEv(ptr noundef nonnull align 8 dereferenceable(17) %this) #1 comdat align 2 {
entry:
  %this.addr = alloca ptr, align 8
  store ptr %this, ptr %this.addr, align 8
  %this1 = load ptr, ptr %this.addr, align 8
  %_M_payload = getelementptr inbounds %"struct.std::_Optional_payload_base", ptr %this1, i32 0, i32 0
  ret ptr %_M_payload
}

; Function Attrs: mustprogress nounwind uwtable
define linkonce_odr noundef nonnull align 8 dereferenceable(16) ptr @_ZNSt19_Optional_base_implIN5folly5RangeIPcEESt14_Optional_baseIS3_Lb1ELb1EEE6_M_getEv(ptr noundef nonnull align 1 dereferenceable(1) %this) #1 comdat align 2 {
entry:
  %this.addr = alloca ptr, align 8
  store ptr %this, ptr %this.addr, align 8
  %this1 = load ptr, ptr %this.addr, align 8
  br label %do.body

do.body:                                          ; preds = %entry
  br label %do.cond

do.cond:                                          ; preds = %do.body
  br label %do.end

do.end:                                           ; preds = %do.cond
  %_M_payload = getelementptr inbounds %"struct.std::_Optional_base", ptr %this1, i32 0, i32 0
  %call = call noundef nonnull align 8 dereferenceable(16) ptr @_ZNSt22_Optional_payload_baseIN5folly5RangeIPcEEE6_M_getEv(ptr noundef nonnull align 8 dereferenceable(17) %_M_payload) #13
  ret ptr %call
}

; Function Attrs: mustprogress nounwind uwtable
define linkonce_odr noundef zeroext i1 @_ZNKSt19_Optional_base_implIN5folly5RangeIPcEESt14_Optional_baseIS3_Lb1ELb1EEE13_M_is_engagedEv(ptr noundef nonnull align 1 dereferenceable(1) %this) #1 comdat align 2 {
entry:
  %this.addr = alloca ptr, align 8
  store ptr %this, ptr %this.addr, align 8
  %this1 = load ptr, ptr %this.addr, align 8
  %_M_payload = getelementptr inbounds %"struct.std::_Optional_base", ptr %this1, i32 0, i32 0
  %_M_engaged = getelementptr inbounds %"struct.std::_Optional_payload_base", ptr %_M_payload, i32 0, i32 1
  %0 = load i8, ptr %_M_engaged, align 8
  %tobool = trunc i8 %0 to i1
  ret i1 %tobool
}

; Function Attrs: mustprogress nounwind uwtable
define linkonce_odr noundef i64 @_ZNK8facebook5velox6memory10Allocation7PageRun8numPagesEv(ptr noundef nonnull align 8 dereferenceable(8) %this) #1 comdat align 2 {
entry:
  %this.addr = alloca ptr, align 8
  store ptr %this, ptr %this.addr, align 8
  %this1 = load ptr, ptr %this.addr, align 8
  %data_ = getelementptr inbounds %"class.facebook::velox::memory::Allocation::PageRun", ptr %this1, i32 0, i32 0
  %0 = load i64, ptr %data_, align 8
  %shr = lshr i64 %0, 48
  ret i64 %shr
}

; Function Attrs: mustprogress nounwind uwtable
define linkonce_odr noundef nonnull align 8 dereferenceable(8) ptr @_ZNKSt6vectorIN8facebook5velox6memory10Allocation7PageRunESaIS4_EEixEm(ptr noundef nonnull align 8 dereferenceable(24) %this, i64 noundef %__n) #1 comdat align 2 {
entry:
  %this.addr = alloca ptr, align 8
  %__n.addr = alloca i64, align 8
  store ptr %this, ptr %this.addr, align 8
  store i64 %__n, ptr %__n.addr, align 8
  %this1 = load ptr, ptr %this.addr, align 8
  %_M_impl = getelementptr inbounds %"struct.std::_Vector_base.6", ptr %this1, i32 0, i32 0
  %_M_start = getelementptr inbounds %"struct.std::_Vector_base<facebook::velox::memory::Allocation::PageRun, std::allocator<facebook::velox::memory::Allocation::PageRun>>::_Vector_impl_data", ptr %_M_impl, i32 0, i32 0
  %0 = load ptr, ptr %_M_start, align 8
  %1 = load i64, ptr %__n.addr, align 8
  %add.ptr = getelementptr inbounds %"class.facebook::velox::memory::Allocation::PageRun", ptr %0, i64 %1
  ret ptr %add.ptr
}

; Function Attrs: mustprogress nounwind uwtable
define linkonce_odr noundef ptr @_ZNK5folly5RangeIPcE4dataEv(ptr noundef nonnull align 8 dereferenceable(16) %this) #1 comdat align 2 {
entry:
  %this.addr = alloca ptr, align 8
  store ptr %this, ptr %this.addr, align 8
  %this1 = load ptr, ptr %this.addr, align 8
  %b_ = getelementptr inbounds %"class.folly::Range", ptr %this1, i32 0, i32 0
  %0 = load ptr, ptr %b_, align 8
  ret ptr %0
}

; Function Attrs: mustprogress uwtable
define linkonce_odr noundef nonnull align 8 dereferenceable(16) ptr @_ZNOSt8optionalIN5folly5RangeIPcEEE5valueEv(ptr noundef nonnull align 8 dereferenceable(24) %this) #0 comdat align 2 {
entry:
  %this.addr = alloca ptr, align 8
  store ptr %this, ptr %this.addr, align 8
  %this1 = load ptr, ptr %this.addr, align 8
  %call = call noundef zeroext i1 @_ZNKSt19_Optional_base_implIN5folly5RangeIPcEESt14_Optional_baseIS3_Lb1ELb1EEE13_M_is_engagedEv(ptr noundef nonnull align 1 dereferenceable(1) %this1) #13
  br i1 %call, label %if.then, label %if.end

if.then:                                          ; preds = %entry
  %call2 = call noundef nonnull align 8 dereferenceable(16) ptr @_ZNSt19_Optional_base_implIN5folly5RangeIPcEESt14_Optional_baseIS3_Lb1ELb1EEE6_M_getEv(ptr noundef nonnull align 1 dereferenceable(1) %this1) #13
  ret ptr %call2

if.end:                                           ; preds = %entry
  call void @_ZSt27__throw_bad_optional_accessv() #14
  unreachable
}

; Function Attrs: mustprogress nounwind uwtable
define linkonce_odr noundef nonnull align 8 dereferenceable(32) ptr @_ZNKSt6vectorIN8facebook5velox6memory20ContiguousAllocationESaIS3_EEixEm(ptr noundef nonnull align 8 dereferenceable(24) %this, i64 noundef %__n) #1 comdat align 2 {
entry:
  %this.addr = alloca ptr, align 8
  %__n.addr = alloca i64, align 8
  store ptr %this, ptr %this.addr, align 8
  store i64 %__n, ptr %__n.addr, align 8
  %this1 = load ptr, ptr %this.addr, align 8
  %_M_impl = getelementptr inbounds %"struct.std::_Vector_base.1", ptr %this1, i32 0, i32 0
  %_M_start = getelementptr inbounds %"struct.std::_Vector_base<facebook::velox::memory::ContiguousAllocation, std::allocator<facebook::velox::memory::ContiguousAllocation>>::_Vector_impl_data", ptr %_M_impl, i32 0, i32 0
  %0 = load ptr, ptr %_M_start, align 8
  %1 = load i64, ptr %__n.addr, align 8
  %add.ptr = getelementptr inbounds %"class.facebook::velox::memory::ContiguousAllocation", ptr %0, i64 %1
  ret ptr %add.ptr
}

; Function Attrs: mustprogress nounwind uwtable
define linkonce_odr noundef i64 @_ZNKSt6vectorIN8facebook5velox6memory20ContiguousAllocationESaIS3_EE4sizeEv(ptr noundef nonnull align 8 dereferenceable(24) %this) #1 comdat align 2 {
entry:
  %this.addr = alloca ptr, align 8
  store ptr %this, ptr %this.addr, align 8
  %this1 = load ptr, ptr %this.addr, align 8
  %_M_impl = getelementptr inbounds %"struct.std::_Vector_base.1", ptr %this1, i32 0, i32 0
  %_M_finish = getelementptr inbounds %"struct.std::_Vector_base<facebook::velox::memory::ContiguousAllocation, std::allocator<facebook::velox::memory::ContiguousAllocation>>::_Vector_impl_data", ptr %_M_impl, i32 0, i32 1
  %0 = load ptr, ptr %_M_finish, align 8
  %_M_impl2 = getelementptr inbounds %"struct.std::_Vector_base.1", ptr %this1, i32 0, i32 0
  %_M_start = getelementptr inbounds %"struct.std::_Vector_base<facebook::velox::memory::ContiguousAllocation, std::allocator<facebook::velox::memory::ContiguousAllocation>>::_Vector_impl_data", ptr %_M_impl2, i32 0, i32 0
  %1 = load ptr, ptr %_M_start, align 8
  %sub.ptr.lhs.cast = ptrtoint ptr %0 to i64
  %sub.ptr.rhs.cast = ptrtoint ptr %1 to i64
  %sub.ptr.sub = sub i64 %sub.ptr.lhs.cast, %sub.ptr.rhs.cast
  %sub.ptr.div = sdiv exact i64 %sub.ptr.sub, 32
  ret i64 %sub.ptr.div
}

; Function Attrs: mustprogress nounwind uwtable
define linkonce_odr void @_ZN5folly5RangeIPcEC2ES1_m(ptr noundef nonnull align 8 dereferenceable(16) %this, ptr noundef %start, i64 noundef %size) unnamed_addr #1 comdat align 2 {
entry:
  %this.addr = alloca ptr, align 8
  %start.addr = alloca ptr, align 8
  %size.addr = alloca i64, align 8
  store ptr %this, ptr %this.addr, align 8
  store ptr %start, ptr %start.addr, align 8
  store i64 %size, ptr %size.addr, align 8
  %this1 = load ptr, ptr %this.addr, align 8
  %b_ = getelementptr inbounds %"class.folly::Range", ptr %this1, i32 0, i32 0
  %0 = load ptr, ptr %start.addr, align 8
  store ptr %0, ptr %b_, align 8
  %e_ = getelementptr inbounds %"class.folly::Range", ptr %this1, i32 0, i32 1
  %1 = load ptr, ptr %start.addr, align 8
  %2 = load i64, ptr %size.addr, align 8
  %add.ptr = getelementptr inbounds i8, ptr %1, i64 %2
  store ptr %add.ptr, ptr %e_, align 8
  ret void
}

; Function Attrs: mustprogress uwtable
define linkonce_odr noundef i64 @_ZNK8facebook5velox6memory10Allocation7PageRun8numBytesEv(ptr noundef nonnull align 8 dereferenceable(8) %this) #0 comdat align 2 {
entry:
  %this.addr = alloca ptr, align 8
  store ptr %this, ptr %this.addr, align 8
  %this1 = load ptr, ptr %this.addr, align 8
  %call = call noundef i64 @_ZNK8facebook5velox6memory10Allocation7PageRun8numPagesEv(ptr noundef nonnull align 8 dereferenceable(8) %this1)
  %mul = mul i64 %call, 4096
  ret i64 %mul
}

; Function Attrs: mustprogress nounwind uwtable
define linkonce_odr noundef ptr @_ZNK8facebook5velox6memory10Allocation7PageRun4dataIcEEPT_v(ptr noundef nonnull align 8 dereferenceable(8) %this) #1 comdat align 2 {
entry:
  %this.addr = alloca ptr, align 8
  store ptr %this, ptr %this.addr, align 8
  %this1 = load ptr, ptr %this.addr, align 8
  %data_ = getelementptr inbounds %"class.facebook::velox::memory::Allocation::PageRun", ptr %this1, i32 0, i32 0
  %0 = load i64, ptr %data_, align 8
  %and = and i64 %0, 281474976710655
  %1 = inttoptr i64 %and to ptr
  ret ptr %1
}

; Function Attrs: mustprogress nounwind uwtable
define linkonce_odr i64 @_ZNK8facebook5velox6memory10Allocation5runAtEi(ptr noundef nonnull align 8 dereferenceable(36) %this, i32 noundef %index) #1 comdat align 2 {
entry:
  %retval = alloca %"class.facebook::velox::memory::Allocation::PageRun", align 8
  %this.addr = alloca ptr, align 8
  %index.addr = alloca i32, align 4
  store ptr %this, ptr %this.addr, align 8
  store i32 %index, ptr %index.addr, align 4
  %this1 = load ptr, ptr %this.addr, align 8
  %runs_ = getelementptr inbounds %"class.facebook::velox::memory::Allocation", ptr %this1, i32 0, i32 1
  %0 = load i32, ptr %index.addr, align 4
  %conv = sext i32 %0 to i64
  %call = call noundef nonnull align 8 dereferenceable(8) ptr @_ZNKSt6vectorIN8facebook5velox6memory10Allocation7PageRunESaIS4_EEixEm(ptr noundef nonnull align 8 dereferenceable(24) %runs_, i64 noundef %conv) #13
  call void @llvm.memcpy.p0.p0.i64(ptr align 8 %retval, ptr align 8 %call, i64 8, i1 false)
  %coerce.dive = getelementptr inbounds %"class.facebook::velox::memory::Allocation::PageRun", ptr %retval, i32 0, i32 0
  %1 = load i64, ptr %coerce.dive, align 8
  ret i64 %1
}

; Function Attrs: mustprogress nounwind uwtable
define linkonce_odr noundef nonnull align 8 dereferenceable(36) ptr @_ZNKSt6vectorIN8facebook5velox6memory10AllocationESaIS3_EEixEm(ptr noundef nonnull align 8 dereferenceable(24) %this, i64 noundef %__n) #1 comdat align 2 {
entry:
  %this.addr = alloca ptr, align 8
  %__n.addr = alloca i64, align 8
  store ptr %this, ptr %this.addr, align 8
  store i64 %__n, ptr %__n.addr, align 8
  %this1 = load ptr, ptr %this.addr, align 8
  %_M_impl = getelementptr inbounds %"struct.std::_Vector_base", ptr %this1, i32 0, i32 0
  %_M_start = getelementptr inbounds %"struct.std::_Vector_base<facebook::velox::memory::Allocation, std::allocator<facebook::velox::memory::Allocation>>::_Vector_impl_data", ptr %_M_impl, i32 0, i32 0
  %0 = load ptr, ptr %_M_start, align 8
  %1 = load i64, ptr %__n.addr, align 8
  %add.ptr = getelementptr inbounds %"class.facebook::velox::memory::Allocation", ptr %0, i64 %1
  ret ptr %add.ptr
}

; Function Attrs: mustprogress nounwind uwtable
define linkonce_odr noundef i64 @_ZNKSt6vectorIN8facebook5velox6memory10AllocationESaIS3_EE4sizeEv(ptr noundef nonnull align 8 dereferenceable(24) %this) #1 comdat align 2 {
entry:
  %this.addr = alloca ptr, align 8
  store ptr %this, ptr %this.addr, align 8
  %this1 = load ptr, ptr %this.addr, align 8
  %_M_impl = getelementptr inbounds %"struct.std::_Vector_base", ptr %this1, i32 0, i32 0
  %_M_finish = getelementptr inbounds %"struct.std::_Vector_base<facebook::velox::memory::Allocation, std::allocator<facebook::velox::memory::Allocation>>::_Vector_impl_data", ptr %_M_impl, i32 0, i32 1
  %0 = load ptr, ptr %_M_finish, align 8
  %_M_impl2 = getelementptr inbounds %"struct.std::_Vector_base", ptr %this1, i32 0, i32 0
  %_M_start = getelementptr inbounds %"struct.std::_Vector_base<facebook::velox::memory::Allocation, std::allocator<facebook::velox::memory::Allocation>>::_Vector_impl_data", ptr %_M_impl2, i32 0, i32 0
  %1 = load ptr, ptr %_M_start, align 8
  %sub.ptr.lhs.cast = ptrtoint ptr %0 to i64
  %sub.ptr.rhs.cast = ptrtoint ptr %1 to i64
  %sub.ptr.sub = sub i64 %sub.ptr.lhs.cast, %sub.ptr.rhs.cast
  %sub.ptr.div = sdiv exact i64 %sub.ptr.sub, 40
  ret i64 %sub.ptr.div
}

; Function Attrs: mustprogress uwtable
define { ptr, ptr } @_ZNK8facebook5velox6memory14AllocationPool7rangeAtEi(ptr noundef nonnull align 8 dereferenceable(96) %this, i32 noundef %index) #0 align 2 {
entry:
  %retval = alloca %"class.folly::Range", align 8
  %this.addr = alloca ptr, align 8
  %index.addr = alloca i32, align 4
  %run = alloca %"class.facebook::velox::memory::Allocation::PageRun", align 8
  %largeIndex = alloca i64, align 8
  %range = alloca %"class.folly::Range", align 8
  %ref.tmp = alloca %"class.std::optional", align 8
  store ptr %this, ptr %this.addr, align 8
  store i32 %index, ptr %index.addr, align 4
  %this1 = load ptr, ptr %this.addr, align 8
  %0 = load i32, ptr %index.addr, align 4
  %conv = sext i32 %0 to i64
  %allocations_ = getelementptr inbounds %"class.facebook::velox::memory::AllocationPool", ptr %this1, i32 0, i32 1
  %call = call noundef i64 @_ZNKSt6vectorIN8facebook5velox6memory10AllocationESaIS3_EE4sizeEv(ptr noundef nonnull align 8 dereferenceable(24) %allocations_) #13
  %cmp = icmp ult i64 %conv, %call
  br i1 %cmp, label %if.then, label %if.end

if.then:                                          ; preds = %entry
  %allocations_2 = getelementptr inbounds %"class.facebook::velox::memory::AllocationPool", ptr %this1, i32 0, i32 1
  %1 = load i32, ptr %index.addr, align 4
  %conv3 = sext i32 %1 to i64
  %call4 = call noundef nonnull align 8 dereferenceable(36) ptr @_ZNKSt6vectorIN8facebook5velox6memory10AllocationESaIS3_EEixEm(ptr noundef nonnull align 8 dereferenceable(24) %allocations_2, i64 noundef %conv3) #13
  %call5 = call i64 @_ZNK8facebook5velox6memory10Allocation5runAtEi(ptr noundef nonnull align 8 dereferenceable(36) %call4, i32 noundef 0)
  %coerce.dive = getelementptr inbounds %"class.facebook::velox::memory::Allocation::PageRun", ptr %run, i32 0, i32 0
  store i64 %call5, ptr %coerce.dive, align 8
  %call6 = call noundef ptr @_ZNK8facebook5velox6memory10Allocation7PageRun4dataIcEEPT_v(ptr noundef nonnull align 8 dereferenceable(8) %run)
  %call7 = call noundef ptr @_ZNK8facebook5velox6memory10Allocation7PageRun4dataIcEEPT_v(ptr noundef nonnull align 8 dereferenceable(8) %run)
  %startOfRun_ = getelementptr inbounds %"class.facebook::velox::memory::AllocationPool", ptr %this1, i32 0, i32 3
  %2 = load ptr, ptr %startOfRun_, align 8
  %cmp8 = icmp eq ptr %call7, %2
  br i1 %cmp8, label %cond.true, label %cond.false

cond.true:                                        ; preds = %if.then
  %currentOffset_ = getelementptr inbounds %"class.facebook::velox::memory::AllocationPool", ptr %this1, i32 0, i32 5
  %3 = load i64, ptr %currentOffset_, align 8
  br label %cond.end

cond.false:                                       ; preds = %if.then
  %call9 = call noundef i64 @_ZNK8facebook5velox6memory10Allocation7PageRun8numBytesEv(ptr noundef nonnull align 8 dereferenceable(8) %run)
  br label %cond.end

cond.end:                                         ; preds = %cond.false, %cond.true
  %cond = phi i64 [ %3, %cond.true ], [ %call9, %cond.false ]
  call void @_ZN5folly5RangeIPcEC2ES1_m(ptr noundef nonnull align 8 dereferenceable(16) %retval, ptr noundef %call6, i64 noundef %cond)
  br label %return

if.end:                                           ; preds = %entry
  %4 = load i32, ptr %index.addr, align 4
  %conv10 = sext i32 %4 to i64
  %allocations_11 = getelementptr inbounds %"class.facebook::velox::memory::AllocationPool", ptr %this1, i32 0, i32 1
  %call12 = call noundef i64 @_ZNKSt6vectorIN8facebook5velox6memory10AllocationESaIS3_EE4sizeEv(ptr noundef nonnull align 8 dereferenceable(24) %allocations_11) #13
  %sub = sub i64 %conv10, %call12
  store i64 %sub, ptr %largeIndex, align 8
  %5 = load i64, ptr %largeIndex, align 8
  %largeAllocations_ = getelementptr inbounds %"class.facebook::velox::memory::AllocationPool", ptr %this1, i32 0, i32 2
  %call13 = call noundef i64 @_ZNKSt6vectorIN8facebook5velox6memory20ContiguousAllocationESaIS3_EE4sizeEv(ptr noundef nonnull align 8 dereferenceable(24) %largeAllocations_) #13
  %cmp14 = icmp ult i64 %5, %call13
  br i1 %cmp14, label %if.then15, label %if.end26

if.then15:                                        ; preds = %if.end
  %largeAllocations_16 = getelementptr inbounds %"class.facebook::velox::memory::AllocationPool", ptr %this1, i32 0, i32 2
  %6 = load i64, ptr %largeIndex, align 8
  %call17 = call noundef nonnull align 8 dereferenceable(32) ptr @_ZNKSt6vectorIN8facebook5velox6memory20ContiguousAllocationESaIS3_EEixEm(ptr noundef nonnull align 8 dereferenceable(24) %largeAllocations_16, i64 noundef %6) #13
  call void @_ZNK8facebook5velox6memory20ContiguousAllocation13hugePageRangeEv(ptr sret(%"class.std::optional") align 8 %ref.tmp, ptr noundef nonnull align 8 dereferenceable(32) %call17)
  %call18 = call noundef nonnull align 8 dereferenceable(16) ptr @_ZNOSt8optionalIN5folly5RangeIPcEEE5valueEv(ptr noundef nonnull align 8 dereferenceable(24) %ref.tmp)
  call void @llvm.memcpy.p0.p0.i64(ptr align 8 %range, ptr align 8 %call18, i64 16, i1 false)
  %call19 = call noundef ptr @_ZNK5folly5RangeIPcE4dataEv(ptr noundef nonnull align 8 dereferenceable(16) %range)
  %startOfRun_20 = getelementptr inbounds %"class.facebook::velox::memory::AllocationPool", ptr %this1, i32 0, i32 3
  %7 = load ptr, ptr %startOfRun_20, align 8
  %cmp21 = icmp eq ptr %call19, %7
  br i1 %cmp21, label %if.then22, label %if.end25

if.then22:                                        ; preds = %if.then15
  %call23 = call noundef ptr @_ZNK5folly5RangeIPcE4dataEv(ptr noundef nonnull align 8 dereferenceable(16) %range)
  %currentOffset_24 = getelementptr inbounds %"class.facebook::velox::memory::AllocationPool", ptr %this1, i32 0, i32 5
  %8 = load i64, ptr %currentOffset_24, align 8
  call void @_ZN5folly5RangeIPcEC2ES1_m(ptr noundef nonnull align 8 dereferenceable(16) %retval, ptr noundef %call23, i64 noundef %8)
  br label %return

if.end25:                                         ; preds = %if.then15
  call void @llvm.memcpy.p0.p0.i64(ptr align 8 %retval, ptr align 8 %range, i64 16, i1 false)
  br label %return

if.end26:                                         ; preds = %if.end
  call void @llvm.trap()
  call void @llvm.trap()
  unreachable

return:                                           ; preds = %if.end25, %if.then22, %cond.end
  %9 = load { ptr, ptr }, ptr %retval, align 8
  ret { ptr, ptr } %9
}