; Function Attrs: mustprogress uwtable
define { ptr, ptr } @_ZNK8facebook5velox6memory14AllocationPool7rangeAtEi(ptr nocapture noundef nonnull readonly align 8 dereferenceable(96) %this, i32 noundef %index) local_unnamed_addr #0 align 2 {
entry:
  %ref.tmp = alloca %"class.std::optional", align 8
  %conv = sext i32 %index to i64
  %allocations_ = getelementptr inbounds i8, ptr %this, i64 8
  %_M_finish.i = getelementptr inbounds i8, ptr %this, i64 16
  %0 = load ptr, ptr %_M_finish.i, align 8
  %1 = load ptr, ptr %allocations_, align 8
  %sub.ptr.lhs.cast.i = ptrtoint ptr %0 to i64
  %sub.ptr.rhs.cast.i = ptrtoint ptr %1 to i64
  %sub.ptr.sub.i = sub i64 %sub.ptr.lhs.cast.i, %sub.ptr.rhs.cast.i
  %sub.ptr.div.i = sdiv exact i64 %sub.ptr.sub.i, 40
  %cmp = icmp ugt i64 %sub.ptr.div.i, %conv
  br i1 %cmp, label %if.then, label %if.end

if.then:                                          ; preds = %entry
  %runs_.i = getelementptr inbounds %"class.facebook::velox::memory::Allocation", ptr %1, i64 %conv, i32 1
  %2 = load ptr, ptr %runs_.i, align 8
  %retval.sroa.0.0.copyload.i = load i64, ptr %2, align 8
  %and.i = and i64 %retval.sroa.0.0.copyload.i, 281474976710655
  %3 = inttoptr i64 %and.i to ptr
  %startOfRun_ = getelementptr inbounds i8, ptr %this, i64 56
  %4 = load ptr, ptr %startOfRun_, align 8
  %cmp8 = icmp eq ptr %4, %3
  %currentOffset_ = getelementptr inbounds i8, ptr %this, i64 72
  %5 = load i64, ptr %currentOffset_, align 8
  %6 = lshr i64 %retval.sroa.0.0.copyload.i, 36
  %mul.i = and i64 %6, 268431360
  %cond = select i1 %cmp8, i64 %5, i64 %mul.i
  %add.ptr.i5 = getelementptr inbounds i8, ptr %3, i64 %cond
  br label %return

if.end:                                           ; preds = %entry
  %sub = sub nsw i64 %conv, %sub.ptr.div.i
  %largeAllocations_ = getelementptr inbounds i8, ptr %this, i64 32
  %_M_finish.i11 = getelementptr inbounds i8, ptr %this, i64 40
  %7 = load ptr, ptr %_M_finish.i11, align 8
  %8 = load ptr, ptr %largeAllocations_, align 8
  %sub.ptr.lhs.cast.i12 = ptrtoint ptr %7 to i64
  %sub.ptr.rhs.cast.i13 = ptrtoint ptr %8 to i64
  %sub.ptr.sub.i14 = sub i64 %sub.ptr.lhs.cast.i12, %sub.ptr.rhs.cast.i13
  %sub.ptr.div.i15 = ashr exact i64 %sub.ptr.sub.i14, 5
  %cmp14 = icmp ult i64 %sub, %sub.ptr.div.i15
  br i1 %cmp14, label %if.then15, label %if.end26

if.then15:                                        ; preds = %if.end
  %add.ptr.i16 = getelementptr inbounds %"class.facebook::velox::memory::ContiguousAllocation", ptr %8, i64 %sub
  call void @_ZNK8facebook5velox6memory20ContiguousAllocation13hugePageRangeEv(ptr nonnull sret(%"class.std::optional") align 8 %ref.tmp, ptr noundef nonnull align 8 dereferenceable(32) %add.ptr.i16)
  %_M_engaged.i.i = getelementptr inbounds i8, ptr %ref.tmp, i64 16
  %9 = load i8, ptr %_M_engaged.i.i, align 8
  %10 = and i8 %9, 1
  %tobool.i.not.i = icmp eq i8 %10, 0
  br i1 %tobool.i.not.i, label %if.end.i, label %_ZNOSt8optionalIN5folly5RangeIPcEEE5valueEv.exit

if.end.i:                                         ; preds = %if.then15
  call void @_ZSt27__throw_bad_optional_accessv() #14
  unreachable

_ZNOSt8optionalIN5folly5RangeIPcEEE5valueEv.exit: ; preds = %if.then15
  %range.sroa.0.0.copyload = load ptr, ptr %ref.tmp, align 8
  %range.sroa.4.0.ref.tmp.sroa_idx = getelementptr inbounds i8, ptr %ref.tmp, i64 8
  %range.sroa.4.0.copyload = load ptr, ptr %range.sroa.4.0.ref.tmp.sroa_idx, align 8
  %startOfRun_20 = getelementptr inbounds i8, ptr %this, i64 56
  %11 = load ptr, ptr %startOfRun_20, align 8
  %cmp21 = icmp eq ptr %range.sroa.0.0.copyload, %11
  br i1 %cmp21, label %if.then22, label %return

if.then22:                                        ; preds = %_ZNOSt8optionalIN5folly5RangeIPcEEE5valueEv.exit
  %currentOffset_24 = getelementptr inbounds i8, ptr %this, i64 72
  %12 = load i64, ptr %currentOffset_24, align 8
  %add.ptr.i18 = getelementptr inbounds i8, ptr %range.sroa.0.0.copyload, i64 %12
  br label %return

if.end26:                                         ; preds = %if.end
  tail call void @llvm.trap()
  unreachable

return:                                           ; preds = %_ZNOSt8optionalIN5folly5RangeIPcEEE5valueEv.exit, %if.then22, %if.then
  %retval.sroa.0.0 = phi ptr [ %3, %if.then ], [ %range.sroa.0.0.copyload, %if.then22 ], [ %range.sroa.0.0.copyload, %_ZNOSt8optionalIN5folly5RangeIPcEEE5valueEv.exit ]
  %retval.sroa.4.0 = phi ptr [ %add.ptr.i5, %if.then ], [ %add.ptr.i18, %if.then22 ], [ %range.sroa.4.0.copyload, %_ZNOSt8optionalIN5folly5RangeIPcEEE5valueEv.exit ]
  %.fca.0.insert = insertvalue { ptr, ptr } poison, ptr %retval.sroa.0.0, 0
  %.fca.1.insert = insertvalue { ptr, ptr } %.fca.0.insert, ptr %retval.sroa.4.0, 1
  ret { ptr, ptr } %.fca.1.insert
}